; ModuleID = '60/1978.c'
source_filename = "60/1978.c"
target datalayout = "e-m:e-p270:32:32-p271:32:32-p272:64:64-i64:64-f80:128-n8:16:32:64-S128"
target triple = "x86_64-pc-linux-gnu"

@.str = private unnamed_addr constant [3 x i8] c"%d\00", align 1
@.str.1 = private unnamed_addr constant [6 x i8] c"empty\00", align 1
@.str.2 = private unnamed_addr constant [7 x i8] c"%d %d\0A\00", align 1

; Function Attrs: noinline nounwind uwtable
define dso_local i32 @fun(i32 %0) #0 {
  %2 = alloca i32, align 4
  %3 = alloca i32, align 4
  %4 = alloca i32, align 4
  %5 = alloca i32, align 4
  store i32 %0, i32* %3, align 4
  %6 = load i32, i32* %3, align 4
  %7 = icmp eq i32 %6, 2
  br i1 %7, label %11, label %8

8:                                                ; preds = %1
  %9 = load i32, i32* %3, align 4
  %10 = icmp eq i32 %9, 3
  br i1 %10, label %11, label %12

11:                                               ; preds = %8, %1
  store i32 0, i32* %2, align 4
  br label %37

12:                                               ; preds = %8
  %13 = load i32, i32* %3, align 4
  %14 = icmp sgt i32 %13, 3
  br i1 %14, label %15, label %37

15:                                               ; preds = %12
  store i32 0, i32* %4, align 4
  store i32 2, i32* %5, align 4
  br label %16

16:                                               ; preds = %32, %15
  %17 = load i32, i32* %5, align 4
  %18 = sitofp i32 %17 to double
  %19 = load i32, i32* %3, align 4
  %20 = sitofp i32 %19 to double
  %21 = call double @sqrt(double %20) #3
  %22 = fcmp ole double %18, %21
  br i1 %22, label %23, label %35

23:                                               ; preds = %16
  %24 = load i32, i32* %3, align 4
  %25 = load i32, i32* %5, align 4
  %26 = srem i32 %24, %25
  %27 = icmp eq i32 %26, 0
  br i1 %27, label %28, label %31

28:                                               ; preds = %23
  %29 = load i32, i32* %4, align 4
  %30 = add nsw i32 %29, 1
  store i32 %30, i32* %4, align 4
  br label %35

31:                                               ; preds = %23
  br label %32

32:                                               ; preds = %31
  %33 = load i32, i32* %5, align 4
  %34 = add nsw i32 %33, 1
  store i32 %34, i32* %5, align 4
  br label %16

35:                                               ; preds = %28, %16
  %36 = load i32, i32* %4, align 4
  store i32 %36, i32* %2, align 4
  br label %37

37:                                               ; preds = %11, %35, %12
  %38 = load i32, i32* %2, align 4
  ret i32 %38
}

; Function Attrs: nounwind
declare dso_local double @sqrt(double) #1

; Function Attrs: noinline nounwind uwtable
define dso_local i32 @main() #0 {
  %1 = alloca i32, align 4
  %2 = alloca i32, align 4
  %3 = alloca i32, align 4
  store i32 0, i32* %1, align 4
  %4 = call i32 (i8*, ...) @__isoc99_scanf(i8* getelementptr inbounds ([3 x i8], [3 x i8]* @.str, i64 0, i64 0), i32* %2)
  %5 = load i32, i32* %2, align 4
  %6 = icmp slt i32 %5, 5
  br i1 %6, label %7, label %9

7:                                                ; preds = %0
  %8 = call i32 (i8*, ...) @printf(i8* getelementptr inbounds ([6 x i8], [6 x i8]* @.str.1, i64 0, i64 0))
  br label %9

9:                                                ; preds = %7, %0
  %10 = load i32, i32* %2, align 4
  %11 = icmp sge i32 %10, 5
  br i1 %11, label %12, label %38

12:                                               ; preds = %9
  store i32 2, i32* %3, align 4
  br label %13

13:                                               ; preds = %34, %12
  %14 = load i32, i32* %3, align 4
  %15 = load i32, i32* %2, align 4
  %16 = sub nsw i32 %15, 2
  %17 = icmp sle i32 %14, %16
  br i1 %17, label %18, label %37

18:                                               ; preds = %13
  %19 = load i32, i32* %3, align 4
  %20 = call i32 @fun(i32 %19)
  %21 = icmp eq i32 %20, 0
  br i1 %21, label %22, label %33

22:                                               ; preds = %18
  %23 = load i32, i32* %3, align 4
  %24 = add nsw i32 %23, 2
  %25 = call i32 @fun(i32 %24)
  %26 = icmp eq i32 %25, 0
  br i1 %26, label %27, label %32

27:                                               ; preds = %22
  %28 = load i32, i32* %3, align 4
  %29 = load i32, i32* %3, align 4
  %30 = add nsw i32 %29, 2
  %31 = call i32 (i8*, ...) @printf(i8* getelementptr inbounds ([7 x i8], [7 x i8]* @.str.2, i64 0, i64 0), i32 %28, i32 %30)
  br label %32

32:                                               ; preds = %27, %22
  br label %33

33:                                               ; preds = %32, %18
  br label %34

34:                                               ; preds = %33
  %35 = load i32, i32* %3, align 4
  %36 = add nsw i32 %35, 1
  store i32 %36, i32* %3, align 4
  br label %13

37:                                               ; preds = %13
  br label %38

38:                                               ; preds = %37, %9
  ret i32 0
}

declare dso_local i32 @__isoc99_scanf(i8*, ...) #2

declare dso_local i32 @printf(i8*, ...) #2


!llvm.module.flags = !{!0}
!llvm.ident = !{!1}

!0 = !{i32 1, !"wchar_size", i32 4}
!1 = !{!"clang version 10.0.0-4ubuntu1 "}
